 GNU assembler version 2.42 (x86_64-linux-gnu)
	 using BFD version (GNU Binutils for Ubuntu) 2.42.
 options passed	: -I --64 -aghlns=src/debug.c.lst 
 input file    	: /tmp/cccjZmw5.s
 output file   	: sdl2/debug.o
 target        	: x86_64-pc-linux-gnu
 time stamp    	: 2025-03-16T09:20:32.000-0400

   1              		.file	"debug.c"
   2              		.text
   3              		.section	.rodata.str1.1,"aMS",@progbits,1
   4              	.LC0:
   5 0000 44656275 		.string	"Debugging heap:"
   5      6767696E 
   5      67206865 
   5      61703A00 
   6              	.LC1:
   7 0010 25703A00 		.string	"%p:"
   8              	.LC2:
   9 0014 20252E32 		.string	" %.2X"
   9      5800
  10              	.LC3:
  11 001a 48656170 		.string	"Heap end"
  11      20656E64 
  11      00
  12              	.LC4:
  13 0023 48656170 		.string	"Heap object"
  13      206F626A 
  13      65637400 
  14              	.LC5:
  15 002f 2D205369 		.string	"- Size:  %d\n"
  15      7A653A20 
  15      2025640A 
  15      00
  16              	.LC6:
  17 003c 2D205461 		.string	"- Tab:   %d\n"
  17      623A2020 
  17      2025640A 
  17      00
  18              	.LC7:
  19 0049 2D205370 		.string	"- Split: %d\n"
  19      6C69743A 
  19      2025640A 
  19      00
  20              	.LC8:
  21 0056 2D20456E 		.string	"- End\n"
  21      640A00
  22              	.LC9:
  23 005d 2D205461 		.string	"- Tab object. Size: %d \n"
  23      62206F62 
  23      6A656374 
  23      2E205369 
  23      7A653A20 
  24              	.LC10:
  25 0076 2D205461 		.string	"- Tab objects: %d\n"
  25      62206F62 
  25      6A656374 
  25      733A2025 
  25      640A00
  26              		.text
  27              		.p2align 4
  28              		.globl	debug_heap
  29              		.type	debug_heap, @function
  30              	debug_heap:
  31              	.LFB6512:
  32              		.cfi_startproc
  33 0000 F30F1EFA 		endbr64
  34 0004 4157     		pushq	%r15
  35              		.cfi_def_cfa_offset 16
  36              		.cfi_offset 15, -16
  37 0006 4156     		pushq	%r14
  38              		.cfi_def_cfa_offset 24
  39              		.cfi_offset 14, -24
  40 0008 4155     		pushq	%r13
  41              		.cfi_def_cfa_offset 32
  42              		.cfi_offset 13, -32
  43 000a 4C8D2D00 		leaq	.LC1(%rip), %r13
  43      000000
  44 0011 4154     		pushq	%r12
  45              		.cfi_def_cfa_offset 40
  46              		.cfi_offset 12, -40
  47 0013 4C8D2500 		leaq	.LC2(%rip), %r12
  47      000000
  48 001a 55       		pushq	%rbp
  49              		.cfi_def_cfa_offset 48
  50              		.cfi_offset 6, -48
  51 001b 53       		pushq	%rbx
  52              		.cfi_def_cfa_offset 56
  53              		.cfi_offset 3, -56
  54 001c 4883EC18 		subq	$24, %rsp
  55              		.cfi_def_cfa_offset 80
  56 0020 488B1D00 		movq	heap(%rip), %rbx
  56      000000
  57 0027 893C24   		movl	%edi, (%rsp)
  58 002a 488D3D00 		leaq	.LC0(%rip), %rdi
  58      000000
  59 0031 E8000000 		call	puts@PLT
  59      00
  60 0036 488D6B04 		leaq	4(%rbx), %rbp
  61 003a 4C8DB3C4 		leaq	196(%rbx), %r14
  61      000000
  62              		.p2align 4,,10
  63 0041 0F1F8000 		.p2align 3
  63      000000
  64              	.L3:
  65 0048 4C8D7DFC 		leaq	-4(%rbp), %r15
  66 004c 4C89EE   		movq	%r13, %rsi
  67 004f BF020000 		movl	$2, %edi
  67      00
  68 0054 31C0     		xorl	%eax, %eax
  69 0056 4C89FA   		movq	%r15, %rdx
  70 0059 E8000000 		call	__printf_chk@PLT
  70      00
  71              	.L2:
  72 005e 410FB617 		movzbl	(%r15), %edx
  73 0062 4C89E6   		movq	%r12, %rsi
  74 0065 BF020000 		movl	$2, %edi
  74      00
  75 006a 31C0     		xorl	%eax, %eax
  76 006c 4983C701 		addq	$1, %r15
  77 0070 E8000000 		call	__printf_chk@PLT
  77      00
  78 0075 4C39FD   		cmpq	%r15, %rbp
  79 0078 75E4     		jne	.L2
  80 007a BF0A0000 		movl	$10, %edi
  80      00
  81 007f 4883C504 		addq	$4, %rbp
  82 0083 E8000000 		call	putchar@PLT
  82      00
  83 0088 4C39F5   		cmpq	%r14, %rbp
  84 008b 75BB     		jne	.L3
  85 008d BF0A0000 		movl	$10, %edi
  85      00
  86 0092 E8000000 		call	putchar@PLT
  86      00
  87 0097 803B00   		cmpb	$0, (%rbx)
  88 009a 0F84B600 		je	.L15
  88      0000
  89 00a0 8B1424   		movl	(%rsp), %edx
  90 00a3 4C8D3D00 		leaq	.LC4(%rip), %r15
  90      000000
  91 00aa 4C8D3500 		leaq	.LC5(%rip), %r14
  91      000000
  92 00b1 4C8D2D00 		leaq	.LC6(%rip), %r13
  92      000000
  93 00b8 4C8D2500 		leaq	.LC7(%rip), %r12
  93      000000
  94 00bf 488D0500 		leaq	.LC8(%rip), %rax
  94      000000
  95 00c6 85D2     		testl	%edx, %edx
  96 00c8 0F84A200 		je	.L36
  96      0000
  97 00ce 833C2401 		cmpl	$1, (%rsp)
  98 00d2 48890424 		movq	%rax, (%rsp)
  99 00d6 0F845201 		je	.L6
  99      0000
 100 00dc 0F1F4000 		.p2align 4,,10
 101              		.p2align 3
 102              	.L9:
 103 00e0 4C89FF   		movq	%r15, %rdi
 104 00e3 E8000000 		call	puts@PLT
 104      00
 105 00e8 8B2B     		movl	(%rbx), %ebp
 106 00ea 4C89F6   		movq	%r14, %rsi
 107 00ed BF020000 		movl	$2, %edi
 107      00
 108 00f2 31C0     		xorl	%eax, %eax
 109 00f4 89EA     		movl	%ebp, %edx
 110 00f6 E8000000 		call	__printf_chk@PLT
 110      00
 111 00fb 0FB65304 		movzbl	4(%rbx), %edx
 112 00ff 4C89EE   		movq	%r13, %rsi
 113 0102 31C0     		xorl	%eax, %eax
 114 0104 BF020000 		movl	$2, %edi
 114      00
 115 0109 E8000000 		call	__printf_chk@PLT
 115      00
 116 010e 0FB65305 		movzbl	5(%rbx), %edx
 117 0112 4C89E6   		movq	%r12, %rsi
 118 0115 31C0     		xorl	%eax, %eax
 119 0117 BF020000 		movl	$2, %edi
 119      00
 120 011c E8000000 		call	__printf_chk@PLT
 120      00
 121 0121 8B4308   		movl	8(%rbx), %eax
 122 0124 488D5308 		leaq	8(%rbx), %rdx
 123 0128 85C0     		testl	%eax, %eax
 124 012a 7417     		je	.L7
 125 012c 0F1F4000 		.p2align 4,,10
 126              		.p2align 3
 127              	.L8:
 128 0130 C1E802   		shrl	$2, %eax
 129 0133 8D048500 		leal	0(,%rax,4), %eax
 129      000000
 130 013a 4801C2   		addq	%rax, %rdx
 131 013d 8B02     		movl	(%rdx), %eax
 132 013f 85C0     		testl	%eax, %eax
 133 0141 75ED     		jne	.L8
 134              	.L7:
 135 0143 488B3C24 		movq	(%rsp), %rdi
 136 0147 89ED     		movl	%ebp, %ebp
 137 0149 4801EB   		addq	%rbp, %rbx
 138 014c E8000000 		call	puts@PLT
 138      00
 139 0151 803B00   		cmpb	$0, (%rbx)
 140 0154 758A     		jne	.L9
 141              	.L15:
 142 0156 4883C418 		addq	$24, %rsp
 143              		.cfi_remember_state
 144              		.cfi_def_cfa_offset 56
 145 015a 488D3D00 		leaq	.LC3(%rip), %rdi
 145      000000
 146 0161 5B       		popq	%rbx
 147              		.cfi_def_cfa_offset 48
 148 0162 5D       		popq	%rbp
 149              		.cfi_def_cfa_offset 40
 150 0163 415C     		popq	%r12
 151              		.cfi_def_cfa_offset 32
 152 0165 415D     		popq	%r13
 153              		.cfi_def_cfa_offset 24
 154 0167 415E     		popq	%r14
 155              		.cfi_def_cfa_offset 16
 156 0169 415F     		popq	%r15
 157              		.cfi_def_cfa_offset 8
 158 016b E9000000 		jmp	puts@PLT
 158      00
 159              	.L36:
 160              		.cfi_restore_state
 161 0170 48890424 		movq	%rax, (%rsp)
 162              		.p2align 4,,10
 163 0174 0F1F4000 		.p2align 3
 164              	.L5:
 165 0178 4C89FF   		movq	%r15, %rdi
 166 017b E8000000 		call	puts@PLT
 166      00
 167 0180 8B2B     		movl	(%rbx), %ebp
 168 0182 4C89F6   		movq	%r14, %rsi
 169 0185 BF020000 		movl	$2, %edi
 169      00
 170 018a 31C0     		xorl	%eax, %eax
 171 018c 89EA     		movl	%ebp, %edx
 172 018e E8000000 		call	__printf_chk@PLT
 172      00
 173 0193 0FB65304 		movzbl	4(%rbx), %edx
 174 0197 4C89EE   		movq	%r13, %rsi
 175 019a 31C0     		xorl	%eax, %eax
 176 019c BF020000 		movl	$2, %edi
 176      00
 177 01a1 E8000000 		call	__printf_chk@PLT
 177      00
 178 01a6 0FB65305 		movzbl	5(%rbx), %edx
 179 01aa 4C89E6   		movq	%r12, %rsi
 180 01ad 31C0     		xorl	%eax, %eax
 181 01af BF020000 		movl	$2, %edi
 181      00
 182 01b4 E8000000 		call	__printf_chk@PLT
 182      00
 183 01b9 8B4308   		movl	8(%rbx), %eax
 184 01bc 488D5308 		leaq	8(%rbx), %rdx
 185 01c0 31C9     		xorl	%ecx, %ecx
 186 01c2 85C0     		testl	%eax, %eax
 187 01c4 7420     		je	.L13
 188 01c6 662E0F1F 		.p2align 4,,10
 188      84000000 
 188      0000
 189              		.p2align 3
 190              	.L14:
 191 01d0 C1E802   		shrl	$2, %eax
 192 01d3 83C101   		addl	$1, %ecx
 193 01d6 8D048500 		leal	0(,%rax,4), %eax
 193      000000
 194 01dd 4801C2   		addq	%rax, %rdx
 195 01e0 8B02     		movl	(%rdx), %eax
 196 01e2 85C0     		testl	%eax, %eax
 197 01e4 75EA     		jne	.L14
 198              	.L13:
 199 01e6 89CA     		movl	%ecx, %edx
 200 01e8 488D3500 		leaq	.LC10(%rip), %rsi
 200      000000
 201 01ef BF020000 		movl	$2, %edi
 201      00
 202 01f4 31C0     		xorl	%eax, %eax
 203 01f6 E8000000 		call	__printf_chk@PLT
 203      00
 204 01fb 488B3C24 		movq	(%rsp), %rdi
 205 01ff 4801EB   		addq	%rbp, %rbx
 206 0202 E8000000 		call	puts@PLT
 206      00
 207 0207 803B00   		cmpb	$0, (%rbx)
 208 020a 0F8568FF 		jne	.L5
 208      FFFF
 209 0210 E941FFFF 		jmp	.L15
 209      FF
 210              	.L11:
 211 0215 488B3C24 		movq	(%rsp), %rdi
 212 0219 E8000000 		call	puts@PLT
 212      00
 213 021e 8B44240C 		movl	12(%rsp), %eax
 214 0222 4801C3   		addq	%rax, %rbx
 215 0225 803B00   		cmpb	$0, (%rbx)
 216 0228 0F8428FF 		je	.L15
 216      FFFF
 217              	.L6:
 218 022e 4C89FF   		movq	%r15, %rdi
 219 0231 488D6B08 		leaq	8(%rbx), %rbp
 220 0235 E8000000 		call	puts@PLT
 220      00
 221 023a 8B03     		movl	(%rbx), %eax
 222 023c 4C89F6   		movq	%r14, %rsi
 223 023f BF020000 		movl	$2, %edi
 223      00
 224 0244 89C2     		movl	%eax, %edx
 225 0246 8944240C 		movl	%eax, 12(%rsp)
 226 024a 31C0     		xorl	%eax, %eax
 227 024c E8000000 		call	__printf_chk@PLT
 227      00
 228 0251 0FB65304 		movzbl	4(%rbx), %edx
 229 0255 4C89EE   		movq	%r13, %rsi
 230 0258 31C0     		xorl	%eax, %eax
 231 025a BF020000 		movl	$2, %edi
 231      00
 232 025f E8000000 		call	__printf_chk@PLT
 232      00
 233 0264 0FB65305 		movzbl	5(%rbx), %edx
 234 0268 4C89E6   		movq	%r12, %rsi
 235 026b 31C0     		xorl	%eax, %eax
 236 026d BF020000 		movl	$2, %edi
 236      00
 237 0272 E8000000 		call	__printf_chk@PLT
 237      00
 238 0277 8B5308   		movl	8(%rbx), %edx
 239 027a 85D2     		testl	%edx, %edx
 240 027c 7497     		je	.L11
 241 027e 6690     		.p2align 4,,10
 242              		.p2align 3
 243              	.L12:
 244 0280 488D3500 		leaq	.LC9(%rip), %rsi
 244      000000
 245 0287 BF020000 		movl	$2, %edi
 245      00
 246 028c 31C0     		xorl	%eax, %eax
 247 028e E8000000 		call	__printf_chk@PLT
 247      00
 248 0293 8B4500   		movl	0(%rbp), %eax
 249 0296 83E0FC   		andl	$4294967292, %eax
 250 0299 4801C5   		addq	%rax, %rbp
 251 029c 8B5500   		movl	0(%rbp), %edx
 252 029f 85D2     		testl	%edx, %edx
 253 02a1 75DD     		jne	.L12
 254 02a3 E96DFFFF 		jmp	.L11
 254      FF
 255              		.cfi_endproc
 256              	.LFE6512:
 257              		.size	debug_heap, .-debug_heap
 258              		.ident	"GCC: (Ubuntu 13.3.0-6ubuntu2~24.04) 13.3.0"
 259              		.section	.note.GNU-stack,"",@progbits
 260              		.section	.note.gnu.property,"a"
 261              		.align 8
 262 0000 04000000 		.long	1f - 0f
 263 0004 10000000 		.long	4f - 1f
 264 0008 05000000 		.long	5
 265              	0:
 266 000c 474E5500 		.string	"GNU"
 267              	1:
 268              		.align 8
 269 0010 020000C0 		.long	0xc0000002
 270 0014 04000000 		.long	3f - 2f
 271              	2:
 272 0018 03000000 		.long	0x3
 273              	3:
 274 001c 00000000 		.align 8
 275              	4: